target datalayout = "e-m:e-p270:32:32-p271:32:32-p272:64:64-i64:64-i128:128-f80:128-n8:16:32:64-S128"
target triple = "x86_64-pc-linux-gnu"

%struct._fix_parameter = type { i32, i32, i32, i32, i32 }

@.str.35 = private unnamed_addr constant [3 x i8] c"9=\00", align 1
@.str.36 = private unnamed_addr constant [4 x i8] c"10=\00", align 1
@.str.37 = private unnamed_addr constant [6 x i8] c"8=FIX\00", align 1
@fix_param.ret = internal global %struct._fix_parameter zeroinitializer, align 4

; Function Attrs: null_pointer_is_valid sspstrong uwtable
define internal ptr @fix_param(ptr noundef %0, i32 noundef %1) #0 {
  %3 = alloca ptr, align 8
  %4 = alloca ptr, align 8
  %5 = alloca i32, align 4
  %6 = alloca i32, align 4
  %7 = alloca i32, align 4
  store ptr %0, ptr %4, align 8
  store i32 %1, ptr %5, align 4
  call void @llvm.lifetime.start.p0(i64 4, ptr %6) #7
  %8 = load ptr, ptr %4, align 8
  %9 = load i32, ptr %5, align 4
  %10 = call i32 @tvb_find_uint8(ptr noundef %8, i32 noundef %9, i32 noundef -1, i8 noundef zeroext 1)
  store i32 %10, ptr getelementptr inbounds nuw (%struct._fix_parameter, ptr @fix_param.ret, i32 0, i32 4), align 4
  %11 = load i32, ptr getelementptr inbounds nuw (%struct._fix_parameter, ptr @fix_param.ret, i32 0, i32 4), align 4
  %12 = icmp eq i32 %11, -1
  br i1 %12, label %13, label %14

13:                                               ; preds = %2
  store ptr null, ptr %3, align 8
  store i32 1, ptr %7, align 4
  br label %36

14:                                               ; preds = %2
  %15 = load i32, ptr getelementptr inbounds nuw (%struct._fix_parameter, ptr @fix_param.ret, i32 0, i32 4), align 4
  %16 = load i32, ptr %5, align 4
  %17 = sub i32 %15, %16
  %18 = add i32 %17, 1
  store i32 %18, ptr @fix_param.ret, align 4
  %19 = load ptr, ptr %4, align 8
  %20 = load i32, ptr %5, align 4
  %21 = load i32, ptr @fix_param.ret, align 4
  %22 = call i32 @tvb_find_uint8(ptr noundef %19, i32 noundef %20, i32 noundef %21, i8 noundef zeroext 61)
  store i32 %22, ptr %6, align 4
  %23 = load i32, ptr %6, align 4
  %24 = icmp eq i32 %23, -1
  br i1 %24, label %25, label %26

25:                                               ; preds = %14
  store ptr null, ptr %3, align 8
  store i32 1, ptr %7, align 4
  br label %36

26:                                               ; preds = %14
  %27 = load i32, ptr %6, align 4
  %28 = add i32 %27, 1
  store i32 %28, ptr getelementptr inbounds nuw (%struct._fix_parameter, ptr @fix_param.ret, i32 0, i32 2), align 4
  %29 = load i32, ptr getelementptr inbounds nuw (%struct._fix_parameter, ptr @fix_param.ret, i32 0, i32 2), align 4
  %30 = load i32, ptr %5, align 4
  %31 = sub i32 %29, %30
  %32 = sub i32 %31, 1
  store i32 %32, ptr getelementptr inbounds nuw (%struct._fix_parameter, ptr @fix_param.ret, i32 0, i32 1), align 4
  %33 = load i32, ptr getelementptr inbounds nuw (%struct._fix_parameter, ptr @fix_param.ret, i32 0, i32 4), align 4
  %34 = load i32, ptr getelementptr inbounds nuw (%struct._fix_parameter, ptr @fix_param.ret, i32 0, i32 2), align 4
  %35 = sub i32 %33, %34
  store i32 %35, ptr getelementptr inbounds nuw (%struct._fix_parameter, ptr @fix_param.ret, i32 0, i32 3), align 4
  store ptr @fix_param.ret, ptr %3, align 8
  store i32 1, ptr %7, align 4
  br label %36

36:                                               ; preds = %26, %25, %13
  call void @llvm.lifetime.end.p0(i64 4, ptr %6) #7
  %37 = load ptr, ptr %3, align 8
  ret ptr %37
}

; Function Attrs: null_pointer_is_valid sspstrong uwtable
define internal i32 @fix_marker(ptr noundef %0, i32 noundef %1) #0 {
  %3 = alloca ptr, align 8
  %4 = alloca i32, align 4
  store ptr %0, ptr %3, align 8
  store i32 %1, ptr %4, align 4
  %5 = load ptr, ptr %3, align 8
  %6 = load i32, ptr %4, align 4
  %7 = call i32 @tvb_strneql(ptr noundef %5, i32 noundef %6, ptr noundef @.str.37, i64 noundef 5)
  ret i32 %7
}

; Function Attrs: null_pointer_is_valid sspstrong uwtable
define internal i32 @fix_header_len(ptr noundef %0, i32 noundef %1) #0 {
  %3 = alloca i32, align 4
  %4 = alloca ptr, align 8
  %5 = alloca i32, align 4
  %6 = alloca i32, align 4
  %7 = alloca i32, align 4
  %8 = alloca i32, align 4
  %9 = alloca i32, align 4
  %10 = alloca ptr, align 8
  %11 = alloca i32, align 4
  store ptr %0, ptr %4, align 8
  store i32 %1, ptr %5, align 4
  call void @llvm.lifetime.start.p0(i64 4, ptr %6) #7
  call void @llvm.lifetime.start.p0(i64 4, ptr %7) #7
  call void @llvm.lifetime.start.p0(i64 4, ptr %8) #7
  call void @llvm.lifetime.start.p0(i64 4, ptr %9) #7
  call void @llvm.lifetime.start.p0(i64 8, ptr %10) #7
  %12 = load i32, ptr %5, align 4
  store i32 %12, ptr %6, align 4
  %13 = load ptr, ptr %4, align 8
  %14 = load i32, ptr %5, align 4
  %15 = call i32 @fix_marker(ptr noundef %13, i32 noundef %14)
  %16 = icmp ne i32 %15, 0
  br i1 %16, label %17, label %21

17:                                               ; preds = %2
  %18 = load ptr, ptr %4, align 8
  %19 = load i32, ptr %5, align 4
  %20 = call i32 @fix_next_header(ptr noundef %18, i32 noundef %19)
  store i32 %20, ptr %3, align 4
  store i32 1, ptr %11, align 4
  br label %115

21:                                               ; preds = %2
  %22 = load ptr, ptr %4, align 8
  %23 = load i32, ptr %5, align 4
  %24 = call i32 @tvb_find_uint8(ptr noundef %22, i32 noundef %23, i32 noundef -1, i8 noundef zeroext 1)
  store i32 %24, ptr %7, align 4
  %25 = load i32, ptr %7, align 4
  %26 = icmp eq i32 %25, -1
  br i1 %26, label %27, label %33

27:                                               ; preds = %21
  %28 = load ptr, ptr %4, align 8
  %29 = load i32, ptr %5, align 4
  %30 = add i32 %29, 5
  %31 = call i32 @fix_next_header(ptr noundef %28, i32 noundef %30)
  %32 = add i32 %31, 5
  store i32 %32, ptr %3, align 4
  store i32 1, ptr %11, align 4
  br label %115

33:                                               ; preds = %21
  %34 = load i32, ptr %7, align 4
  %35 = add i32 %34, 1
  store i32 %35, ptr %5, align 4
  %36 = load ptr, ptr %4, align 8
  %37 = load i32, ptr %5, align 4
  %38 = call ptr @fix_param(ptr noundef %36, i32 noundef %37)
  store ptr %38, ptr %10, align 8
  %39 = icmp ne ptr %38, null
  br i1 %39, label %40, label %45

40:                                               ; preds = %33
  %41 = load ptr, ptr %4, align 8
  %42 = load i32, ptr %5, align 4
  %43 = call i32 @tvb_strneql(ptr noundef %41, i32 noundef %42, ptr noundef @.str.35, i64 noundef 2)
  %44 = icmp ne i32 %43, 0
  br i1 %44, label %45, label %49

45:                                               ; preds = %40, %33
  %46 = load ptr, ptr %4, align 8
  %47 = load i32, ptr %5, align 4
  %48 = call i32 @fix_next_header(ptr noundef %46, i32 noundef %47)
  store i32 %48, ptr %3, align 4
  store i32 1, ptr %11, align 4
  br label %115

49:                                               ; preds = %40
  %50 = call ptr @wmem_packet_scope()
  %51 = load ptr, ptr %4, align 8
  %52 = load ptr, ptr %10, align 8
  %53 = getelementptr inbounds nuw %struct._fix_parameter, ptr %52, i32 0, i32 2
  %54 = load i32, ptr %53, align 4
  %55 = load ptr, ptr %10, align 8
  %56 = getelementptr inbounds nuw %struct._fix_parameter, ptr %55, i32 0, i32 3
  %57 = load i32, ptr %56, align 4
  %58 = call ptr @tvb_get_string_enc(ptr noundef %50, ptr noundef %51, i32 noundef %54, i32 noundef %57, i32 noundef 0)
  %59 = call zeroext i1 @ws_strtoi32(ptr noundef %58, ptr noundef null, ptr noundef %8)
  br i1 %59, label %66, label %60

60:                                               ; preds = %49
  %61 = load ptr, ptr %4, align 8
  %62 = load i32, ptr %6, align 4
  %63 = add i32 %62, 5
  %64 = call i32 @fix_next_header(ptr noundef %61, i32 noundef %63)
  %65 = add i32 %64, 5
  store i32 %65, ptr %3, align 4
  store i32 1, ptr %11, align 4
  br label %115

66:                                               ; preds = %49
  %67 = load i32, ptr %8, align 4
  %68 = load ptr, ptr %10, align 8
  %69 = getelementptr inbounds nuw %struct._fix_parameter, ptr %68, i32 0, i32 4
  %70 = load i32, ptr %69, align 4
  %71 = add i32 %67, %70
  %72 = load i32, ptr %6, align 4
  %73 = sub i32 %71, %72
  %74 = add i32 %73, 1
  store i32 %74, ptr %9, align 4
  %75 = load ptr, ptr %4, align 8
  %76 = load i32, ptr %6, align 4
  %77 = call i32 @tvb_reported_length_remaining(ptr noundef %75, i32 noundef %76)
  %78 = load i32, ptr %9, align 4
  %79 = add i32 %78, 4
  %80 = icmp sgt i32 %77, %79
  br i1 %80, label %81, label %111

81:                                               ; preds = %66
  %82 = load i32, ptr %6, align 4
  %83 = load i32, ptr %9, align 4
  %84 = add i32 %82, %83
  store i32 %84, ptr %5, align 4
  %85 = load ptr, ptr %4, align 8
  %86 = load i32, ptr %5, align 4
  %87 = call i32 @tvb_strneql(ptr noundef %85, i32 noundef %86, ptr noundef @.str.36, i64 noundef 3)
  %88 = icmp ne i32 %87, 0
  br i1 %88, label %89, label %95

89:                                               ; preds = %81
  %90 = load ptr, ptr %4, align 8
  %91 = load i32, ptr %6, align 4
  %92 = add i32 %91, 5
  %93 = call i32 @fix_next_header(ptr noundef %90, i32 noundef %92)
  %94 = add i32 %93, 5
  store i32 %94, ptr %3, align 4
  store i32 1, ptr %11, align 4
  br label %115

95:                                               ; preds = %81
  %96 = load ptr, ptr %4, align 8
  %97 = load i32, ptr %5, align 4
  %98 = call i32 @tvb_find_uint8(ptr noundef %96, i32 noundef %97, i32 noundef -1, i8 noundef zeroext 1)
  store i32 %98, ptr %7, align 4
  %99 = load i32, ptr %7, align 4
  %100 = icmp eq i32 %99, -1
  br i1 %100, label %101, label %104

101:                                              ; preds = %95
  %102 = load i32, ptr %9, align 4
  %103 = add i32 %102, 7
  store i32 %103, ptr %3, align 4
  store i32 1, ptr %11, align 4
  br label %115

104:                                              ; preds = %95
  %105 = load i32, ptr %9, align 4
  %106 = load i32, ptr %7, align 4
  %107 = add i32 %105, %106
  %108 = load i32, ptr %5, align 4
  %109 = sub i32 %107, %108
  %110 = add i32 %109, 1
  store i32 %110, ptr %3, align 4
  store i32 1, ptr %11, align 4
  br label %115

111:                                              ; preds = %66
  br label %112

112:                                              ; preds = %111
  %113 = load i32, ptr %9, align 4
  %114 = add i32 %113, 7
  store i32 %114, ptr %3, align 4
  store i32 1, ptr %11, align 4
  br label %115

115:                                              ; preds = %112, %104, %101, %89, %60, %45, %27, %17
  call void @llvm.lifetime.end.p0(i64 8, ptr %10) #7
  call void @llvm.lifetime.end.p0(i64 4, ptr %9) #7
  call void @llvm.lifetime.end.p0(i64 4, ptr %8) #7
  call void @llvm.lifetime.end.p0(i64 4, ptr %7) #7
  call void @llvm.lifetime.end.p0(i64 4, ptr %6) #7
  %116 = load i32, ptr %3, align 4
  ret i32 %116
}

; Function Attrs: null_pointer_is_valid sspstrong uwtable
define internal i32 @get_fix_pdu_len(ptr noundef %0, ptr noundef %1, i32 noundef %2, ptr noundef %3) #0 {
  %5 = alloca ptr, align 8
  %6 = alloca ptr, align 8
  %7 = alloca i32, align 4
  %8 = alloca ptr, align 8
  %9 = alloca i32, align 4
  store ptr %0, ptr %5, align 8
  store ptr %1, ptr %6, align 8
  store i32 %2, ptr %7, align 4
  store ptr %3, ptr %8, align 8
  call void @llvm.lifetime.start.p0(i64 4, ptr %9) #7
  %10 = load ptr, ptr %6, align 8
  %11 = load i32, ptr %7, align 4
  %12 = call i32 @fix_header_len(ptr noundef %10, i32 noundef %11)
  store i32 %12, ptr %9, align 4
  %13 = load i32, ptr %9, align 4
  call void @llvm.lifetime.end.p0(i64 4, ptr %9) #7
  ret i32 %13
}