; Function Attrs: null_pointer_is_valid sspstrong uwtable
define internal i32 @get_fix_pdu_len(ptr readnone captures(none) %0, ptr noundef %1, i32 noundef %2, ptr readnone captures(none) %3) #0 {
  %5 = alloca i32, align 4
  call void @llvm.lifetime.start.p0(i64 4, ptr nonnull %5) #5
  %6 = tail call i32 @tvb_strneql(ptr noundef %1, i32 noundef %2, ptr noundef nonnull @.str.37, i64 noundef 5)
  %.not.i = icmp eq i32 %6, 0
  br i1 %.not.i, label %9, label %7

7:                                                ; preds = %4
  %8 = tail call fastcc i32 @fix_next_header(ptr noundef %1, i32 noundef %2)
  br label %fix_header_len.exit

9:                                                ; preds = %4
  %10 = tail call i32 @tvb_find_uint8(ptr noundef %1, i32 noundef %2, i32 noundef -1, i8 noundef zeroext 1)
  %11 = icmp eq i32 %10, -1
  br i1 %11, label %12, label %16

12:                                               ; preds = %9
  %13 = add i32 %2, 5
  %14 = tail call fastcc i32 @fix_next_header(ptr noundef %1, i32 noundef %13)
  %15 = add i32 %14, 5
  br label %fix_header_len.exit

16:                                               ; preds = %9
  %17 = add nuw i32 %10, 1
  %18 = tail call i32 @tvb_find_uint8(ptr noundef %1, i32 noundef %17, i32 noundef -1, i8 noundef zeroext 1)
  store i32 %18, ptr @fix_param.ret.4, align 4
  %19 = icmp eq i32 %18, -1
  br i1 %19, label %fix_param.exit.thread.i, label %20

20:                                               ; preds = %16
  %21 = sub i32 %18, %17
  %22 = add i32 %21, 1
  store i32 %22, ptr @fix_param.ret.0, align 4
  %23 = tail call i32 @tvb_find_uint8(ptr noundef %1, i32 noundef %17, i32 noundef %22, i8 noundef zeroext 61)
  %24 = icmp eq i32 %23, -1
  br i1 %24, label %fix_param.exit.thread.i, label %25

25:                                               ; preds = %20
  %26 = add nuw i32 %23, 1
  store i32 %26, ptr @fix_param.ret.2, align 4
  %27 = sub i32 %23, %17
  store i32 %27, ptr @fix_param.ret.1, align 4
  %28 = load i32, ptr @fix_param.ret.4, align 4
  %29 = sub i32 %28, %26
  store i32 %29, ptr @fix_param.ret.3, align 4
  %30 = tail call i32 @tvb_strneql(ptr noundef %1, i32 noundef %17, ptr noundef nonnull @.str.35, i64 noundef 2)
  %.not45.i = icmp eq i32 %30, 0
  br i1 %.not45.i, label %32, label %fix_param.exit.thread.i

fix_param.exit.thread.i:                          ; preds = %25, %20, %16
  %31 = tail call fastcc i32 @fix_next_header(ptr noundef %1, i32 noundef %17)
  br label %fix_header_len.exit

32:                                               ; preds = %25
  %33 = tail call ptr @wmem_packet_scope()
  %34 = load i32, ptr @fix_param.ret.2, align 4
  %35 = load i32, ptr @fix_param.ret.3, align 4
  %36 = tail call ptr @tvb_get_string_enc(ptr noundef %33, ptr noundef %1, i32 noundef %34, i32 noundef %35, i32 noundef 0)
  %37 = call zeroext i1 @ws_strtoi32(ptr noundef %36, ptr noundef null, ptr noundef nonnull %5)
  br i1 %37, label %42, label %38

38:                                               ; preds = %32
  %39 = add i32 %2, 5
  %40 = call fastcc i32 @fix_next_header(ptr noundef %1, i32 noundef %39)
  %41 = add i32 %40, 5
  br label %fix_header_len.exit

42:                                               ; preds = %32
  %43 = load i32, ptr %5, align 4
  %44 = load i32, ptr @fix_param.ret.4, align 4
  %45 = add i32 %44, %43
  %46 = sub i32 %45, %2
  %47 = call i32 @tvb_reported_length_remaining(ptr noundef %1, i32 noundef %2)
  %48 = add i32 %46, 5
  %49 = icmp sgt i32 %47, %48
  br i1 %49, label %50, label %64

50:                                               ; preds = %42
  %51 = add i32 %45, 1
  %52 = call i32 @tvb_strneql(ptr noundef %1, i32 noundef %51, ptr noundef nonnull @.str.36, i64 noundef 3)
  %.not46.i = icmp eq i32 %52, 0
  br i1 %.not46.i, label %57, label %53

53:                                               ; preds = %50
  %54 = add i32 %2, 5
  %55 = call fastcc i32 @fix_next_header(ptr noundef %1, i32 noundef %54)
  %56 = add i32 %55, 5
  br label %fix_header_len.exit

57:                                               ; preds = %50
  %58 = call i32 @tvb_find_uint8(ptr noundef %1, i32 noundef %51, i32 noundef -1, i8 noundef zeroext 1)
  %59 = icmp eq i32 %58, -1
  br i1 %59, label %60, label %62

60:                                               ; preds = %57
  %61 = add i32 %46, 8
  br label %fix_header_len.exit

62:                                               ; preds = %57
  %reass.sub = sub i32 %58, %2
  %63 = add i32 %reass.sub, 1
  br label %fix_header_len.exit

64:                                               ; preds = %42
  %65 = add i32 %46, 8
  br label %fix_header_len.exit

fix_header_len.exit:                              ; preds = %7, %12, %fix_param.exit.thread.i, %38, %53, %60, %62, %64
  %.0.i = phi i32 [ %8, %7 ], [ %15, %12 ], [ %31, %fix_param.exit.thread.i ], [ %56, %53 ], [ %61, %60 ], [ %63, %62 ], [ %65, %64 ], [ %41, %38 ]
  call void @llvm.lifetime.end.p0(i64 4, ptr nonnull %5) #5
  ret i32 %.0.i
}